	.file	"args.c"
	.text
	.globl	foo
	.type	foo, @function
foo:
.LFB0:
	.cfi_startproc
	pushq	%rbp
	.cfi_def_cfa_offset 16
	.cfi_offset 6, -16
	movq	%rsp, %rbp
	.cfi_def_cfa_register 6
	movl	%edi, -4(%rbp)
	movl	%esi, -8(%rbp)
	movl	%edx, -12(%rbp)
	movl	%ecx, -16(%rbp)
	movl	%r8d, -20(%rbp)
	movl	%r9d, -24(%rbp)
	movl	-8(%rbp), %eax
	movl	-4(%rbp), %edx
	addl	%eax, %edx
	movl	-12(%rbp), %eax
	addl	%eax, %edx
	movl	-16(%rbp), %eax
	addl	%eax, %edx
	movl	-20(%rbp), %eax
	addl	%eax, %edx
	movl	-24(%rbp), %eax
	addl	%eax, %edx
	movl	16(%rbp), %eax
	addl	%eax, %edx
	movl	24(%rbp), %eax
	addl	%eax, %edx
	movl	32(%rbp), %eax
	addl	%eax, %edx
	movl	40(%rbp), %eax
	addl	%eax, %edx
	movl	48(%rbp), %eax
	addl	%edx, %eax
	popq	%rbp
	.cfi_def_cfa 7, 8
	ret
	.cfi_endproc
.LFE0:
	.size	foo, .-foo
	.globl	bar
	.type	bar, @function
bar:
.LFB1:
	.cfi_startproc
	pushq	%rbp
	.cfi_def_cfa_offset 16
	.cfi_offset 6, -16
	movq	%rsp, %rbp
	.cfi_def_cfa_register 6
	subq	$40, %rsp
	movl	$10, 32(%rsp)
	movl	$9, 24(%rsp)
	movl	$8, 16(%rsp)
	movl	$7, 8(%rsp)
	movl	$6, (%rsp)
	movl	$5, %r9d
	movl	$4, %r8d
	movl	$3, %ecx
	movl	$2, %edx
	movl	$1, %esi
	movl	$0, %edi
	call	foo
	leave
	.cfi_def_cfa 7, 8
	ret
	.cfi_endproc
.LFE1:
	.size	bar, .-bar
	.ident	"GCC: (Ubuntu/Linaro 4.7.2-2ubuntu1) 4.7.2"
	.section	.note.GNU-stack,"",@progbits
